target datalayout = "e-m:e-p270:32:32-p271:32:32-p272:64:64-i64:64-i128:128-f80:128-n8:16:32:64-S128"
target triple = "x86_64-unknown-linux-gnu"

%"class.icu_75::NFSubstitution" = type { %"class.icu_75::UObject", i32, ptr, ptr }
%"class.icu_75::UObject" = type { ptr }
%"class.icu_75::ParsePosition" = type { %"class.icu_75::UObject", i32, i32 }
%"class.icu_75::ModulusSubstitution" = type { %"class.icu_75::NFSubstitution", i64, ptr }

; Function Attrs: mustprogress nounwind uwtable
define linkonce_odr noundef i32 @_ZNK6icu_7513ParsePosition8getIndexEv(ptr noundef nonnull align 8 dereferenceable(16) %this) #0 comdat align 2 {
entry:
  %this.addr = alloca ptr, align 8
  store ptr %this, ptr %this.addr, align 8
  %this1 = load ptr, ptr %this.addr, align 8
  %index = getelementptr inbounds %"class.icu_75::ParsePosition", ptr %this1, i32 0, i32 1
  %0 = load i32, ptr %index, align 8
  ret i32 %0
}

; Function Attrs: mustprogress uwtable
define noundef signext i8 @_ZNK6icu_7519ModulusSubstitution7doParseERKNS_13UnicodeStringERNS_13ParsePositionEddajRNS_11FormattableE(ptr noundef nonnull align 8 dereferenceable(48) %this, ptr noundef nonnull align 8 dereferenceable(64) %text, ptr noundef nonnull align 8 dereferenceable(16) %parsePosition, double noundef %baseValue, double noundef %upperBound, i8 noundef signext %lenientParse, i32 noundef %nonNumericalExecutedRuleMask, ptr noundef nonnull align 8 dereferenceable(112) %result) unnamed_addr #2 align 2 {
entry:
  %retval = alloca i8, align 1
  %this.addr = alloca ptr, align 8
  %text.addr = alloca ptr, align 8
  %parsePosition.addr = alloca ptr, align 8
  %baseValue.addr = alloca double, align 8
  %upperBound.addr = alloca double, align 8
  %lenientParse.addr = alloca i8, align 1
  %nonNumericalExecutedRuleMask.addr = alloca i32, align 4
  %result.addr = alloca ptr, align 8
  %status = alloca i32, align 4
  %tempResult = alloca double, align 8
  store ptr %this, ptr %this.addr, align 8
  store ptr %text, ptr %text.addr, align 8
  store ptr %parsePosition, ptr %parsePosition.addr, align 8
  store double %baseValue, ptr %baseValue.addr, align 8
  store double %upperBound, ptr %upperBound.addr, align 8
  store i8 %lenientParse, ptr %lenientParse.addr, align 1
  store i32 %nonNumericalExecutedRuleMask, ptr %nonNumericalExecutedRuleMask.addr, align 4
  store ptr %result, ptr %result.addr, align 8
  %this1 = load ptr, ptr %this.addr, align 8
  %ruleToUse = getelementptr inbounds %"class.icu_75::ModulusSubstitution", ptr %this1, i32 0, i32 2
  %0 = load ptr, ptr %ruleToUse, align 8
  %cmp = icmp eq ptr %0, null
  br i1 %cmp, label %if.then, label %if.else

if.then:                                          ; preds = %entry
  %1 = load ptr, ptr %text.addr, align 8
  %2 = load ptr, ptr %parsePosition.addr, align 8
  %3 = load double, ptr %baseValue.addr, align 8
  %4 = load double, ptr %upperBound.addr, align 8
  %5 = load i8, ptr %lenientParse.addr, align 1
  %6 = load i32, ptr %nonNumericalExecutedRuleMask.addr, align 4
  %7 = load ptr, ptr %result.addr, align 8
  %call = call noundef signext i8 @_ZNK6icu_7514NFSubstitution7doParseERKNS_13UnicodeStringERNS_13ParsePositionEddajRNS_11FormattableE(ptr noundef nonnull align 8 dereferenceable(32) %this1, ptr noundef nonnull align 8 dereferenceable(64) %1, ptr noundef nonnull align 8 dereferenceable(16) %2, double noundef %3, double noundef %4, i8 noundef signext %5, i32 noundef %6, ptr noundef nonnull align 8 dereferenceable(112) %7)
  store i8 %call, ptr %retval, align 1
  br label %return

if.else:                                          ; preds = %entry
  %ruleToUse2 = getelementptr inbounds %"class.icu_75::ModulusSubstitution", ptr %this1, i32 0, i32 2
  %8 = load ptr, ptr %ruleToUse2, align 8
  %9 = load ptr, ptr %text.addr, align 8
  %10 = load ptr, ptr %parsePosition.addr, align 8
  %11 = load double, ptr %upperBound.addr, align 8
  %12 = load i32, ptr %nonNumericalExecutedRuleMask.addr, align 4
  %13 = load ptr, ptr %result.addr, align 8
  %call3 = call noundef signext i8 @_ZNK6icu_756NFRule7doParseERKNS_13UnicodeStringERNS_13ParsePositionEadjRNS_11FormattableE(ptr noundef nonnull align 8 dereferenceable(112) %8, ptr noundef nonnull align 8 dereferenceable(64) %9, ptr noundef nonnull align 8 dereferenceable(16) %10, i8 noundef signext 0, double noundef %11, i32 noundef %12, ptr noundef nonnull align 8 dereferenceable(112) %13)
  %14 = load ptr, ptr %parsePosition.addr, align 8
  %call4 = call noundef i32 @_ZNK6icu_7513ParsePosition8getIndexEv(ptr noundef nonnull align 8 dereferenceable(16) %14)
  %cmp5 = icmp ne i32 %call4, 0
  br i1 %cmp5, label %if.then6, label %if.end

if.then6:                                         ; preds = %if.else
  store i32 0, ptr %status, align 4
  %15 = load ptr, ptr %result.addr, align 8
  %call7 = call noundef double @_ZNK6icu_7511Formattable9getDoubleER10UErrorCode(ptr noundef nonnull align 8 dereferenceable(112) %15, ptr noundef nonnull align 4 dereferenceable(4) %status)
  store double %call7, ptr %tempResult, align 8
  %16 = load double, ptr %tempResult, align 8
  %17 = load double, ptr %baseValue.addr, align 8
  %vtable = load ptr, ptr %this1, align 8
  %vfn = getelementptr inbounds ptr, ptr %vtable, i64 11
  %18 = load ptr, ptr %vfn, align 8
  %call8 = call noundef double %18(ptr noundef nonnull align 8 dereferenceable(48) %this1, double noundef %16, double noundef %17)
  store double %call8, ptr %tempResult, align 8
  %19 = load ptr, ptr %result.addr, align 8
  %20 = load double, ptr %tempResult, align 8
  call void @_ZN6icu_7511Formattable9setDoubleEd(ptr noundef nonnull align 8 dereferenceable(112) %19, double noundef %20)
  br label %if.end

if.end:                                           ; preds = %if.then6, %if.else
  store i8 1, ptr %retval, align 1
  br label %return

return:                                           ; preds = %if.end, %if.then
  %21 = load i8, ptr %retval, align 1
  ret i8 %21
}