; Function Attrs: mustprogress uwtable
define noundef signext i8 @_ZNK6icu_7519ModulusSubstitution7doParseERKNS_13UnicodeStringERNS_13ParsePositionEddajRNS_11FormattableE(ptr noundef nonnull align 8 dereferenceable(48) %this, ptr noundef nonnull align 8 dereferenceable(64) %text, ptr noundef nonnull align 8 dereferenceable(16) %parsePosition, double noundef %baseValue, double noundef %upperBound, i8 noundef signext %lenientParse, i32 noundef %nonNumericalExecutedRuleMask, ptr noundef nonnull align 8 dereferenceable(112) %result) unnamed_addr #2 align 2 {
entry:
  %status = alloca i32, align 4
  %ruleToUse = getelementptr inbounds i8, ptr %this, i64 40
  %0 = load ptr, ptr %ruleToUse, align 8
  %cmp = icmp eq ptr %0, null
  br i1 %cmp, label %if.then, label %if.else

if.then:                                          ; preds = %entry
  %call = tail call noundef signext i8 @_ZNK6icu_7514NFSubstitution7doParseERKNS_13UnicodeStringERNS_13ParsePositionEddajRNS_11FormattableE(ptr noundef nonnull align 8 dereferenceable(32) %this, ptr noundef nonnull align 8 dereferenceable(64) %text, ptr noundef nonnull align 8 dereferenceable(16) %parsePosition, double noundef %baseValue, double noundef %upperBound, i8 noundef signext %lenientParse, i32 noundef %nonNumericalExecutedRuleMask, ptr noundef nonnull align 8 dereferenceable(112) %result), !range !8
  br label %return

if.else:                                          ; preds = %entry
  %call3 = tail call noundef signext i8 @_ZNK6icu_756NFRule7doParseERKNS_13UnicodeStringERNS_13ParsePositionEadjRNS_11FormattableE(ptr noundef nonnull align 8 dereferenceable(112) %0, ptr noundef nonnull align 8 dereferenceable(64) %text, ptr noundef nonnull align 8 dereferenceable(16) %parsePosition, i8 noundef signext 0, double noundef %upperBound, i32 noundef %nonNumericalExecutedRuleMask, ptr noundef nonnull align 8 dereferenceable(112) %result)
  %index.i = getelementptr inbounds i8, ptr %parsePosition, i64 8
  %1 = load i32, ptr %index.i, align 8
  %cmp5.not = icmp eq i32 %1, 0
  br i1 %cmp5.not, label %return, label %if.then6

if.then6:                                         ; preds = %if.else
  store i32 0, ptr %status, align 4
  %call7 = call noundef double @_ZNK6icu_7511Formattable9getDoubleER10UErrorCode(ptr noundef nonnull align 8 dereferenceable(112) %result, ptr noundef nonnull align 4 dereferenceable(4) %status)
  %vtable = load ptr, ptr %this, align 8
  %vfn = getelementptr inbounds i8, ptr %vtable, i64 88
  %2 = load ptr, ptr %vfn, align 8
  %call8 = call noundef double %2(ptr noundef nonnull align 8 dereferenceable(48) %this, double noundef %call7, double noundef %baseValue)
  call void @_ZN6icu_7511Formattable9setDoubleEd(ptr noundef nonnull align 8 dereferenceable(112) %result, double noundef %call8)
  br label %return

return:                                           ; preds = %if.else, %if.then6, %if.then
  %retval.0 = phi i8 [ %call, %if.then ], [ 1, %if.then6 ], [ 1, %if.else ]
  ret i8 %retval.0
}